; Function Attrs: mustprogress uwtable
define void @_ZNK5faiss17ResidualQuantizer15refine_beam_LUTEmPKfS2_iPiPf(ptr noundef nonnull align 8 dereferenceable(432) %0, i64 noundef %1, ptr noundef %2, ptr noundef %3, i32 noundef %4, ptr noundef %5, ptr noundef %6) local_unnamed_addr #0 align 2 personality ptr @__gxx_personality_v0 {
  %8 = alloca %"struct.faiss::rq_encode_steps::RefineBeamLUTMemoryPool", align 8
  call void @llvm.memset.p0.i64(ptr noundef nonnull align 8 dereferenceable(96) %8, i8 0, i64 96, i1 false)
  invoke void @_ZN5faiss15rq_encode_steps18refine_beam_LUT_mpERKNS_17ResidualQuantizerEmPKfS5_iPiPfRNS0_23RefineBeamLUTMemoryPoolE(ptr noundef nonnull align 8 dereferenceable(432) %0, i64 noundef %1, ptr noundef %2, ptr noundef %3, i32 noundef %4, ptr noundef %5, ptr noundef %6, ptr noundef nonnull align 8 dereferenceable(96) %8)
          to label %9 unwind label %21

9:                                                ; preds = %7
  %10 = getelementptr inbounds i8, ptr %8, i64 72
  %11 = load ptr, ptr %10, align 8
  %.not.i.i.i.i = icmp eq ptr %11, null
  br i1 %.not.i.i.i.i, label %_ZNSt6vectorIfSaIfEED2Ev.exit.i, label %12

12:                                               ; preds = %9
  call void @_ZdlPv(ptr noundef nonnull %11) #15
  br label %_ZNSt6vectorIfSaIfEED2Ev.exit.i

_ZNSt6vectorIfSaIfEED2Ev.exit.i:                  ; preds = %12, %9
  %13 = getelementptr inbounds i8, ptr %8, i64 48
  %14 = load ptr, ptr %13, align 8
  %.not.i.i.i1.i = icmp eq ptr %14, null
  br i1 %.not.i.i.i1.i, label %_ZNSt6vectorIiSaIiEED2Ev.exit.i, label %15

15:                                               ; preds = %_ZNSt6vectorIfSaIfEED2Ev.exit.i
  call void @_ZdlPv(ptr noundef nonnull %14) #15
  br label %_ZNSt6vectorIiSaIiEED2Ev.exit.i

_ZNSt6vectorIiSaIiEED2Ev.exit.i:                  ; preds = %15, %_ZNSt6vectorIfSaIfEED2Ev.exit.i
  %16 = getelementptr inbounds i8, ptr %8, i64 24
  %17 = load ptr, ptr %16, align 8
  %.not.i.i.i2.i = icmp eq ptr %17, null
  br i1 %.not.i.i.i2.i, label %_ZNSt6vectorIfSaIfEED2Ev.exit3.i, label %18

18:                                               ; preds = %_ZNSt6vectorIiSaIiEED2Ev.exit.i
  call void @_ZdlPv(ptr noundef nonnull %17) #15
  br label %_ZNSt6vectorIfSaIfEED2Ev.exit3.i

_ZNSt6vectorIfSaIfEED2Ev.exit3.i:                 ; preds = %18, %_ZNSt6vectorIiSaIiEED2Ev.exit.i
  %19 = load ptr, ptr %8, align 8
  %.not.i.i.i4.i = icmp eq ptr %19, null
  br i1 %.not.i.i.i4.i, label %_ZN5faiss15rq_encode_steps23RefineBeamLUTMemoryPoolD2Ev.exit, label %20

20:                                               ; preds = %_ZNSt6vectorIfSaIfEED2Ev.exit3.i
  call void @_ZdlPv(ptr noundef nonnull %19) #15
  br label %_ZN5faiss15rq_encode_steps23RefineBeamLUTMemoryPoolD2Ev.exit

_ZN5faiss15rq_encode_steps23RefineBeamLUTMemoryPoolD2Ev.exit: ; preds = %_ZNSt6vectorIfSaIfEED2Ev.exit3.i, %20
  ret void

21:                                               ; preds = %7
  %22 = landingpad { ptr, i32 }
          cleanup
  call void @_ZN5faiss15rq_encode_steps23RefineBeamLUTMemoryPoolD2Ev(ptr noundef nonnull align 8 dereferenceable(96) %8) #16
  resume { ptr, i32 } %22
}